#include <math.h>
#include <stdio.h>
#include <stdlib.h>
#include <string.h>

int main(int argc, char* argv[])
{
	int n,i;
	scanf("%d",&n);
	int *A,*B;
	A=(int *)malloc(sizeof(int)*n);
	B=(int *)malloc(sizeof(int)*n);
	for(i=0;i<n;i++)
	{
		scanf("%d",&A[i]);
		B[n-1-i]=A[i];
	}
	for(i=0;i<n;i++)
	{
		if(i<(n-1))
		printf("%d ",B[i]);
		else
			printf("%d",B[i]);

	}

	return 0;
}

