; ModuleID = 'source-C-CXX/46/3699.c'
source_filename = "source-C-CXX/46/3699.c"
target datalayout = "e-m:e-p270:32:32-p271:32:32-p272:64:64-i64:64-f80:128-n8:16:32:64-S128"
target triple = "x86_64-pc-linux-gnu"

@.str = private unnamed_addr constant [3 x i8] c"%d\00", align 1
@.str.1 = private unnamed_addr constant [4 x i8] c"%d \00", align 1

; Function Attrs: nofree nounwind sspstrong uwtable
define dso_local i32 @main(i32 %0, i8** nocapture readnone %1) local_unnamed_addr #0 {
  %3 = alloca i32, align 4
  %4 = bitcast i32* %3 to i8*
  call void @llvm.lifetime.start.p0i8(i64 4, i8* nonnull %4) #4
  %5 = call i32 (i8*, ...) @__isoc99_scanf(i8* getelementptr inbounds ([3 x i8], [3 x i8]* @.str, i64 0, i64 0), i32* nonnull %3)
  %6 = load i32, i32* %3, align 4, !tbaa !5
  %7 = sext i32 %6 to i64
  %8 = shl nsw i64 %7, 2
  %9 = call noalias align 16 i8* @malloc(i64 %8) #4
  %10 = bitcast i8* %9 to i32*
  %11 = call noalias align 16 i8* @malloc(i64 %8) #4
  %12 = bitcast i8* %11 to i32*
  %13 = icmp sgt i32 %6, 0
  br i1 %13, label %16, label %45

14:                                               ; preds = %16
  %15 = icmp sgt i32 %22, 0
  br i1 %15, label %31, label %45

16:                                               ; preds = %2, %16
  %17 = phi i64 [ %27, %16 ], [ 0, %2 ]
  %18 = phi i32 [ %28, %16 ], [ 0, %2 ]
  %19 = getelementptr inbounds i32, i32* %10, i64 %17
  %20 = call i32 (i8*, ...) @__isoc99_scanf(i8* getelementptr inbounds ([3 x i8], [3 x i8]* @.str, i64 0, i64 0), i32* %19)
  %21 = load i32, i32* %19, align 4, !tbaa !5
  %22 = load i32, i32* %3, align 4, !tbaa !5
  %23 = xor i32 %18, -1
  %24 = add i32 %22, %23
  %25 = sext i32 %24 to i64
  %26 = getelementptr inbounds i32, i32* %12, i64 %25
  store i32 %21, i32* %26, align 4, !tbaa !5
  %27 = add nuw nsw i64 %17, 1
  %28 = add nuw nsw i32 %18, 1
  %29 = sext i32 %22 to i64
  %30 = icmp slt i64 %27, %29
  br i1 %30, label %16, label %14, !llvm.loop !9

31:                                               ; preds = %14, %31
  %32 = phi i64 [ %41, %31 ], [ 0, %14 ]
  %33 = phi i32 [ %42, %31 ], [ %22, %14 ]
  %34 = add nsw i32 %33, -1
  %35 = sext i32 %34 to i64
  %36 = icmp slt i64 %32, %35
  %37 = getelementptr inbounds i32, i32* %12, i64 %32
  %38 = load i32, i32* %37, align 4, !tbaa !5
  %39 = select i1 %36, i8* getelementptr inbounds ([4 x i8], [4 x i8]* @.str.1, i64 0, i64 0), i8* getelementptr inbounds ([3 x i8], [3 x i8]* @.str, i64 0, i64 0)
  %40 = call i32 (i8*, ...) @printf(i8* nonnull dereferenceable(1) %39, i32 %38)
  %41 = add nuw nsw i64 %32, 1
  %42 = load i32, i32* %3, align 4, !tbaa !5
  %43 = sext i32 %42 to i64
  %44 = icmp slt i64 %41, %43
  br i1 %44, label %31, label %45, !llvm.loop !11

45:                                               ; preds = %31, %2, %14
  call void @llvm.lifetime.end.p0i8(i64 4, i8* nonnull %4) #4
  ret i32 0
}

; Function Attrs: argmemonly mustprogress nofree nosync nounwind willreturn
declare void @llvm.lifetime.start.p0i8(i64 immarg, i8* nocapture) #1

; Function Attrs: nofree nounwind
declare noundef i32 @__isoc99_scanf(i8* nocapture noundef readonly, ...) local_unnamed_addr #2

; Function Attrs: inaccessiblememonly mustprogress nofree nounwind willreturn
declare noalias noundef align 16 i8* @malloc(i64 noundef) local_unnamed_addr #3

; Function Attrs: nofree nounwind
declare noundef i32 @printf(i8* nocapture noundef readonly, ...) local_unnamed_addr #2

; Function Attrs: argmemonly mustprogress nofree nosync nounwind willreturn
declare void @llvm.lifetime.end.p0i8(i64 immarg, i8* nocapture) #1


!llvm.module.flags = !{!0, !1, !2, !3}
!llvm.ident = !{!4}

!0 = !{i32 1, !"wchar_size", i32 4}
!1 = !{i32 7, !"PIC Level", i32 2}
!2 = !{i32 7, !"PIE Level", i32 2}
!3 = !{i32 7, !"uwtable", i32 1}
!4 = !{!"clang version 13.0.0"}
!5 = !{!6, !6, i64 0}
!6 = !{!"int", !7, i64 0}
!7 = !{!"omnipotent char", !8, i64 0}
!8 = !{!"Simple C/C++ TBAA"}
!9 = distinct !{!9, !10}
!10 = !{!"llvm.loop.mustprogress"}
!11 = distinct !{!11, !10}
